target datalayout = "e-m:e-p270:32:32-p271:32:32-p272:64:64-i64:64-i128:128-f80:128-n8:16:32:64-S128"
target triple = "x86_64-pc-linux-gnu"

%struct.OSSL_TIME = type { i64 }
%struct.ssl_session_st = type { i32, i64, [64 x i8], [512 x i8], i64, [32 x i8], i64, [32 x i8], ptr, ptr, i32, ptr, ptr, ptr, i64, %struct.OSSL_TIME, %struct.OSSL_TIME, %struct.OSSL_TIME, i32, ptr, i64, i32, %struct.crypto_ex_data_st, %struct.anon, ptr, ptr, i64, i32, ptr, ptr, ptr, %struct.CRYPTO_REF_COUNT }
%struct.crypto_ex_data_st = type { ptr, ptr }
%struct.anon = type { ptr, ptr, i64, i64, i32, i32, ptr, i64, i8 }
%struct.CRYPTO_REF_COUNT = type { i32 }

; Function Attrs: inlinehint nounwind uwtable
define internal i64 @ossl_time_to_time_t(i64 %0) #2 {
  %2 = alloca %struct.OSSL_TIME, align 8
  %3 = getelementptr inbounds nuw %struct.OSSL_TIME, ptr %2, i32 0, i32 0
  store i64 %0, ptr %3, align 8
  %4 = getelementptr inbounds nuw %struct.OSSL_TIME, ptr %2, i32 0, i32 0
  %5 = load i64, ptr %4, align 8, !tbaa !13
  %6 = udiv i64 %5, 1000000000
  ret i64 %6
}

; Function Attrs: nounwind uwtable
define i64 @SSL_SESSION_get_timeout(ptr noundef %0) #0 {
  %2 = alloca i64, align 8
  %3 = alloca ptr, align 8
  store ptr %0, ptr %3, align 8, !tbaa !3
  %4 = load ptr, ptr %3, align 8, !tbaa !3
  %5 = icmp eq ptr %4, null
  br i1 %5, label %6, label %7

6:                                                ; preds = %1
  store i64 0, ptr %2, align 8
  br label %13

7:                                                ; preds = %1
  %8 = load ptr, ptr %3, align 8, !tbaa !3
  %9 = getelementptr inbounds nuw %struct.ssl_session_st, ptr %8, i32 0, i32 15
  %10 = getelementptr inbounds nuw %struct.OSSL_TIME, ptr %9, i32 0, i32 0
  %11 = load i64, ptr %10, align 8
  %12 = call i64 @ossl_time_to_time_t(i64 %11)
  store i64 %12, ptr %2, align 8
  br label %13

13:                                               ; preds = %7, %6
  %14 = load i64, ptr %2, align 8
  ret i64 %14
}